target datalayout = "e-m:e-p270:32:32-p271:32:32-p272:64:64-i64:64-i128:128-f80:128-n8:16:32:64-S128"
target triple = "x86_64-pc-linux-gnu"

%"class.boost::urls::detail::path_ref" = type { ptr, ptr, i64, i64, i64 }
%"class.boost::urls::segments_encoded_ref" = type { %"class.boost::urls::segments_encoded_base", ptr }
%"class.boost::urls::segments_encoded_base" = type { %"class.boost::urls::detail::path_ref" }
%"class.boost::urls::segments_encoded_base::iterator" = type { %"struct.boost::urls::detail::segments_iter_impl" }
%"struct.boost::urls::detail::segments_iter_impl" = type { [8 x i8], %"class.boost::urls::detail::path_ref", i64, i64, i64, i64, %"class.boost::urls::pct_string_view" }
%"class.boost::urls::pct_string_view" = type { %"class.boost::urls::grammar::string_view_base", i64 }
%"class.boost::urls::grammar::string_view_base" = type { %"class.boost::core::basic_string_view" }
%"class.boost::core::basic_string_view" = type { ptr, i64 }
%"struct.boost::urls::detail::any_segments_iter.base" = type <{ ptr, %"class.boost::core::basic_string_view", %"class.boost::core::basic_string_view", i32, i8 }>
%"struct.boost::urls::detail::segments_encoded_iter" = type { %"struct.boost::urls::detail::any_segments_iter.base", ptr, ptr, ptr }
%"struct.boost::urls::detail::any_segments_iter" = type <{ ptr, %"class.boost::core::basic_string_view", %"class.boost::core::basic_string_view", i32, i8, [3 x i8] }>

; Function Attrs: mustprogress nounwind uwtable
define linkonce_odr hidden { ptr, i64 } @_ZNK5boost4urls7grammar16string_view_basecvNS_4core17basic_string_viewIcEEEv(ptr noundef nonnull align 8 dereferenceable(16) %0) #2 comdat align 2 {
  %2 = alloca %"class.boost::core::basic_string_view", align 8
  %3 = alloca ptr, align 8
  store ptr %0, ptr %3, align 8, !tbaa !3
  %4 = load ptr, ptr %3, align 8
  %5 = getelementptr inbounds nuw %"class.boost::urls::grammar::string_view_base", ptr %4, i32 0, i32 0
  call void @llvm.memcpy.p0.p0.i64(ptr align 8 %2, ptr align 8 %5, i64 16, i1 false), !tbaa.struct !26
  %6 = load { ptr, i64 }, ptr %2, align 8
  ret { ptr, i64 } %6
}

; Function Attrs: mustprogress nounwind uwtable
define linkonce_odr hidden { ptr, i64 } @_ZN5boost4urls6detail5to_svINS_4core17basic_string_viewIcEEEES5_RKT_(ptr noundef nonnull align 8 dereferenceable(16) %0) #2 comdat {
  %2 = alloca %"class.boost::core::basic_string_view", align 8
  %3 = alloca ptr, align 8
  store ptr %0, ptr %3, align 8, !tbaa !3
  %4 = load ptr, ptr %3, align 8, !tbaa !3
  call void @llvm.memcpy.p0.p0.i64(ptr align 8 %2, ptr align 8 %4, i64 16, i1 false), !tbaa.struct !26
  %5 = load { ptr, i64 }, ptr %2, align 8
  ret { ptr, i64 } %5
}

; Function Attrs: mustprogress nounwind uwtable
define linkonce_odr hidden void @_ZN5boost4urls6detail17any_segments_iterC2ENS_4core17basic_string_viewIcEE(ptr noundef nonnull align 8 dereferenceable(45) %0, ptr %1, i64 %2) unnamed_addr #2 comdat align 2 {
  %4 = alloca %"class.boost::core::basic_string_view", align 8
  %5 = alloca ptr, align 8
  %6 = getelementptr inbounds nuw { ptr, i64 }, ptr %4, i32 0, i32 0
  store ptr %1, ptr %6, align 8
  %7 = getelementptr inbounds nuw { ptr, i64 }, ptr %4, i32 0, i32 1
  store i64 %2, ptr %7, align 8
  store ptr %0, ptr %5, align 8, !tbaa !3
  %8 = load ptr, ptr %5, align 8
  store ptr getelementptr inbounds inrange(-16, 40) ({ [7 x ptr] }, ptr @_ZTVN5boost4urls6detail17any_segments_iterE, i32 0, i32 0, i32 2), ptr %8, align 8, !tbaa !24
  %9 = getelementptr inbounds nuw %"struct.boost::urls::detail::any_segments_iter", ptr %8, i32 0, i32 1
  call void @llvm.memcpy.p0.p0.i64(ptr align 8 %9, ptr align 8 %4, i64 16, i1 false), !tbaa.struct !26
  %10 = getelementptr inbounds nuw %"struct.boost::urls::detail::any_segments_iter", ptr %8, i32 0, i32 2
  call void @_ZN5boost4core17basic_string_viewIcEC2Ev(ptr noundef nonnull align 8 dereferenceable(16) %10) #14
  %11 = getelementptr inbounds nuw %"struct.boost::urls::detail::any_segments_iter", ptr %8, i32 0, i32 3
  store i32 0, ptr %11, align 8, !tbaa !27
  %12 = getelementptr inbounds nuw %"struct.boost::urls::detail::any_segments_iter", ptr %8, i32 0, i32 4
  store i8 0, ptr %12, align 4, !tbaa !31
  ret void
}

; Function Attrs: mustprogress uwtable
define linkonce_odr hidden void @_ZN5boost4urls6detail21segments_encoded_iterIPNS_4core17basic_string_viewIcEEEC2ES6_S6_(ptr noundef nonnull align 8 dereferenceable(72) %0, ptr noundef %1, ptr noundef %2) unnamed_addr #4 comdat align 2 personality ptr @__gxx_personality_v0 {
  %4 = alloca ptr, align 8
  %5 = alloca ptr, align 8
  %6 = alloca ptr, align 8
  %7 = alloca %"class.boost::core::basic_string_view", align 8
  %8 = alloca %"class.boost::core::basic_string_view", align 8
  %9 = alloca %"class.boost::urls::pct_string_view", align 8
  %10 = alloca %"class.boost::core::basic_string_view", align 8
  %11 = alloca ptr, align 8
  %12 = alloca i32, align 4
  %13 = alloca ptr, align 8
  store ptr %0, ptr %4, align 8, !tbaa !3
  store ptr %1, ptr %5, align 8, !tbaa !3
  store ptr %2, ptr %6, align 8, !tbaa !3
  %14 = load ptr, ptr %4, align 8
  call void @_ZN5boost4core17basic_string_viewIcEC2Ev(ptr noundef nonnull align 8 dereferenceable(16) %7) #14
  %15 = getelementptr inbounds nuw { ptr, i64 }, ptr %7, i32 0, i32 0
  %16 = load ptr, ptr %15, align 8
  %17 = getelementptr inbounds nuw { ptr, i64 }, ptr %7, i32 0, i32 1
  %18 = load i64, ptr %17, align 8
  call void @_ZN5boost4urls6detail17any_segments_iterC2ENS_4core17basic_string_viewIcEE(ptr noundef nonnull align 8 dereferenceable(45) %14, ptr %16, i64 %18) #14
  store ptr getelementptr inbounds inrange(-16, 40) ({ [7 x ptr] }, ptr @_ZTVN5boost4urls6detail21segments_encoded_iterIPNS_4core17basic_string_viewIcEEEE, i32 0, i32 0, i32 2), ptr %14, align 8, !tbaa !24
  %19 = getelementptr inbounds nuw %"struct.boost::urls::detail::segments_encoded_iter", ptr %14, i32 0, i32 1
  %20 = load ptr, ptr %5, align 8, !tbaa !3
  store ptr %20, ptr %19, align 8, !tbaa !65
  %21 = getelementptr inbounds nuw %"struct.boost::urls::detail::segments_encoded_iter", ptr %14, i32 0, i32 2
  %22 = load ptr, ptr %5, align 8, !tbaa !3
  store ptr %22, ptr %21, align 8, !tbaa !67
  %23 = getelementptr inbounds nuw %"struct.boost::urls::detail::segments_encoded_iter", ptr %14, i32 0, i32 3
  %24 = load ptr, ptr %6, align 8, !tbaa !3
  store ptr %24, ptr %23, align 8, !tbaa !68
  %25 = getelementptr inbounds nuw %"struct.boost::urls::detail::segments_encoded_iter", ptr %14, i32 0, i32 1
  %26 = load ptr, ptr %25, align 8, !tbaa !65
  %27 = getelementptr inbounds nuw %"struct.boost::urls::detail::segments_encoded_iter", ptr %14, i32 0, i32 3
  %28 = load ptr, ptr %27, align 8, !tbaa !68
  %29 = icmp ne ptr %26, %28
  br i1 %29, label %30, label %62

30:                                               ; preds = %3
  call void @llvm.lifetime.start.p0(i64 16, ptr %8) #14
  call void @llvm.lifetime.start.p0(i64 24, ptr %9) #14
  %31 = load ptr, ptr %5, align 8, !tbaa !3
  %32 = call { ptr, i64 } @_ZN5boost4urls6detail5to_svINS_4core17basic_string_viewIcEEEES5_RKT_(ptr noundef nonnull align 8 dereferenceable(16) %31) #14
  %33 = getelementptr inbounds nuw { ptr, i64 }, ptr %10, i32 0, i32 0
  %34 = extractvalue { ptr, i64 } %32, 0
  store ptr %34, ptr %33, align 8
  %35 = getelementptr inbounds nuw { ptr, i64 }, ptr %10, i32 0, i32 1
  %36 = extractvalue { ptr, i64 } %32, 1
  store i64 %36, ptr %35, align 8
  %37 = getelementptr inbounds nuw { ptr, i64 }, ptr %10, i32 0, i32 0
  %38 = load ptr, ptr %37, align 8
  %39 = getelementptr inbounds nuw { ptr, i64 }, ptr %10, i32 0, i32 1
  %40 = load i64, ptr %39, align 8
  invoke void @_ZN5boost4urls15pct_string_viewC1ENS_4core17basic_string_viewIcEE(ptr noundef nonnull align 8 dereferenceable(24) %9, ptr %38, i64 %40)
          to label %41 unwind label %55

41:                                               ; preds = %30
  %42 = call { ptr, i64 } @_ZNK5boost4urls7grammar16string_view_basecvNS_4core17basic_string_viewIcEEEv(ptr noundef nonnull align 8 dereferenceable(16) %9) #14
  %43 = getelementptr inbounds nuw { ptr, i64 }, ptr %8, i32 0, i32 0
  %44 = extractvalue { ptr, i64 } %42, 0
  store ptr %44, ptr %43, align 8
  %45 = getelementptr inbounds nuw { ptr, i64 }, ptr %8, i32 0, i32 1
  %46 = extractvalue { ptr, i64 } %42, 1
  store i64 %46, ptr %45, align 8
  %47 = getelementptr inbounds nuw %"struct.boost::urls::detail::any_segments_iter", ptr %14, i32 0, i32 2
  call void @llvm.memcpy.p0.p0.i64(ptr align 8 %47, ptr align 8 %8, i64 16, i1 false), !tbaa.struct !26
  call void @llvm.lifetime.end.p0(i64 24, ptr %9) #14
  call void @llvm.lifetime.end.p0(i64 16, ptr %8) #14
  call void @llvm.lifetime.start.p0(i64 8, ptr %13) #14
  %48 = load ptr, ptr %5, align 8, !tbaa !3
  store ptr %48, ptr %13, align 8, !tbaa !3
  %49 = load ptr, ptr %13, align 8, !tbaa !3
  %50 = getelementptr inbounds nuw %"class.boost::core::basic_string_view", ptr %49, i32 1
  store ptr %50, ptr %13, align 8, !tbaa !3
  %51 = load ptr, ptr %6, align 8, !tbaa !3
  %52 = icmp eq ptr %50, %51
  br i1 %52, label %53, label %59

53:                                               ; preds = %41
  %54 = getelementptr inbounds nuw %"struct.boost::urls::detail::any_segments_iter", ptr %14, i32 0, i32 3
  store i32 1, ptr %54, align 8, !tbaa !27
  br label %61

55:                                               ; preds = %30
  %56 = landingpad { ptr, i32 }
          cleanup
  %57 = extractvalue { ptr, i32 } %56, 0
  store ptr %57, ptr %11, align 8
  %58 = extractvalue { ptr, i32 } %56, 1
  store i32 %58, ptr %12, align 4
  call void @llvm.lifetime.end.p0(i64 24, ptr %9) #14
  call void @llvm.lifetime.end.p0(i64 16, ptr %8) #14
  call void @_ZN5boost4urls6detail17any_segments_iterD2Ev(ptr noundef nonnull align 8 dereferenceable(45) %14) #14
  br label %65

59:                                               ; preds = %41
  %60 = getelementptr inbounds nuw %"struct.boost::urls::detail::any_segments_iter", ptr %14, i32 0, i32 3
  store i32 2, ptr %60, align 8, !tbaa !27
  br label %61

61:                                               ; preds = %59, %53
  call void @llvm.lifetime.end.p0(i64 8, ptr %13) #14
  br label %64

62:                                               ; preds = %3
  %63 = getelementptr inbounds nuw %"struct.boost::urls::detail::any_segments_iter", ptr %14, i32 0, i32 3
  store i32 0, ptr %63, align 8, !tbaa !27
  br label %64

64:                                               ; preds = %62, %61
  ret void

65:                                               ; preds = %55
  %66 = load ptr, ptr %11, align 8
  %67 = load i32, ptr %12, align 4
  %68 = insertvalue { ptr, i32 } poison, ptr %66, 0
  %69 = insertvalue { ptr, i32 } %68, i32 %67, 1
  resume { ptr, i32 } %69
}

; Function Attrs: mustprogress nounwind uwtable
define linkonce_odr hidden void @_ZN5boost4urls6detail17any_segments_iterD2Ev(ptr noundef nonnull align 8 dereferenceable(45) %0) unnamed_addr #2 comdat align 2 {
  %2 = alloca ptr, align 8
  store ptr %0, ptr %2, align 8, !tbaa !3
  ret void
}

; Function Attrs: mustprogress nounwind uwtable
define linkonce_odr hidden void @_ZN5boost4urls21segments_encoded_base8iteratorC2ERKNS0_6detail18segments_iter_implE(ptr noundef nonnull align 8 dereferenceable(104) %0, ptr noundef nonnull align 8 dereferenceable(104) %1) unnamed_addr #2 comdat align 2 {
  %3 = alloca ptr, align 8
  %4 = alloca ptr, align 8
  store ptr %0, ptr %3, align 8, !tbaa !3
  store ptr %1, ptr %4, align 8, !tbaa !3
  %5 = load ptr, ptr %3, align 8
  %6 = getelementptr inbounds nuw %"class.boost::urls::segments_encoded_base::iterator", ptr %5, i32 0, i32 0
  %7 = load ptr, ptr %4, align 8, !tbaa !3
  call void @llvm.memcpy.p0.p0.i64(ptr align 8 %6, ptr align 8 %7, i64 104, i1 false)
  ret void
}

; Function Attrs: mustprogress uwtable
define linkonce_odr hidden void @_ZN5boost4urls6detail26make_segments_encoded_iterIPNS_4core17basic_string_viewIcEEEENS1_21segments_encoded_iterIT_EES8_S8_(ptr dead_on_unwind noalias writable sret(%"struct.boost::urls::detail::segments_encoded_iter") align 8 %0, ptr noundef %1, ptr noundef %2) #4 comdat {
  %4 = alloca ptr, align 8
  %5 = alloca ptr, align 8
  %6 = alloca ptr, align 8
  store ptr %0, ptr %4, align 8
  store ptr %1, ptr %5, align 8, !tbaa !3
  store ptr %2, ptr %6, align 8, !tbaa !3
  %7 = load ptr, ptr %5, align 8, !tbaa !3
  %8 = load ptr, ptr %6, align 8, !tbaa !3
  call void @_ZN5boost4urls6detail21segments_encoded_iterIPNS_4core17basic_string_viewIcEEEC2ES6_S6_(ptr noundef nonnull align 8 dereferenceable(72) %0, ptr noundef %7, ptr noundef %8)
  ret void
}

; Function Attrs: mustprogress nounwind uwtable
define linkonce_odr hidden void @_ZN5boost4core17basic_string_viewIcEC2Ev(ptr noundef nonnull align 8 dereferenceable(16) %0) unnamed_addr #2 comdat align 2 {
  %2 = alloca ptr, align 8
  store ptr %0, ptr %2, align 8, !tbaa !3
  %3 = load ptr, ptr %2, align 8
  %4 = getelementptr inbounds nuw %"class.boost::core::basic_string_view", ptr %3, i32 0, i32 0
  store ptr null, ptr %4, align 8, !tbaa !16
  %5 = getelementptr inbounds nuw %"class.boost::core::basic_string_view", ptr %3, i32 0, i32 1
  store i64 0, ptr %5, align 8, !tbaa !18
  ret void
}

; Function Attrs: mustprogress nounwind uwtable
define void @_ZN5boost4urls20segments_encoded_ref5eraseENS0_21segments_encoded_base8iteratorES3_(ptr dead_on_unwind noalias writable sret(%"class.boost::urls::segments_encoded_base::iterator") align 8 %0, ptr noundef nonnull align 8 dereferenceable(48) %1, ptr noundef byval(%"class.boost::urls::segments_encoded_base::iterator") align 8 %2, ptr noundef byval(%"class.boost::urls::segments_encoded_base::iterator") align 8 %3) #2 align 2 personality ptr @__gxx_personality_v0 {
  %5 = alloca ptr, align 8
  %6 = alloca %"class.boost::core::basic_string_view", align 8
  %7 = alloca %"struct.boost::urls::detail::segments_iter_impl", align 8
  %8 = alloca %"struct.boost::urls::detail::segments_encoded_iter", align 8
  store ptr %1, ptr %5, align 8, !tbaa !3
  %9 = load ptr, ptr %5, align 8
  call void @llvm.lifetime.start.p0(i64 16, ptr %6) #14
  call void @_ZN5boost4core17basic_string_viewIcEC2Ev(ptr noundef nonnull align 8 dereferenceable(16) %6) #14
  call void @llvm.lifetime.start.p0(i64 104, ptr %7) #14
  %10 = getelementptr inbounds nuw %"class.boost::urls::segments_encoded_ref", ptr %9, i32 0, i32 1
  %11 = load ptr, ptr %10, align 8, !tbaa !7
  %12 = getelementptr inbounds nuw %"class.boost::urls::segments_encoded_base::iterator", ptr %2, i32 0, i32 0
  %13 = getelementptr inbounds nuw %"class.boost::urls::segments_encoded_base::iterator", ptr %3, i32 0, i32 0
  call void @llvm.lifetime.start.p0(i64 72, ptr %8) #14
  invoke void @_ZN5boost4urls6detail26make_segments_encoded_iterIPNS_4core17basic_string_viewIcEEEENS1_21segments_encoded_iterIT_EES8_S8_(ptr dead_on_unwind writable sret(%"struct.boost::urls::detail::segments_encoded_iter") align 8 %8, ptr noundef %6, ptr noundef %6)
          to label %14 unwind label %16

14:                                               ; preds = %4
  invoke void @_ZN5boost4urls8url_base13edit_segmentsERKNS0_6detail18segments_iter_implES5_ONS2_17any_segments_iterEi(ptr dead_on_unwind writable sret(%"struct.boost::urls::detail::segments_iter_impl") align 8 %7, ptr noundef nonnull align 8 dereferenceable(216) %11, ptr noundef nonnull align 8 dereferenceable(104) %12, ptr noundef nonnull align 8 dereferenceable(104) %13, ptr noundef nonnull align 8 dereferenceable(45) %8, i32 noundef -1)
          to label %15 unwind label %16

15:                                               ; preds = %14
  call void @_ZN5boost4urls21segments_encoded_base8iteratorC2ERKNS0_6detail18segments_iter_implE(ptr noundef nonnull align 8 dereferenceable(104) %0, ptr noundef nonnull align 8 dereferenceable(104) %7) #14
  call void @_ZN5boost4urls6detail17any_segments_iterD2Ev(ptr noundef nonnull align 8 dereferenceable(72) %8) #14
  call void @llvm.lifetime.end.p0(i64 72, ptr %8) #14
  call void @llvm.lifetime.end.p0(i64 104, ptr %7) #14
  call void @llvm.lifetime.end.p0(i64 16, ptr %6) #14
  ret void

16:                                               ; preds = %14, %4
  %17 = landingpad { ptr, i32 }
          catch ptr null
  %18 = extractvalue { ptr, i32 } %17, 0
  call void @__clang_call_terminate(ptr %18) #15
  unreachable
}